target datalayout = "e-m:e-p270:32:32-p271:32:32-p272:64:64-i64:64-i128:128-f80:128-n8:16:32:64-S128"
target triple = "x86_64-pc-linux-gnu"

%struct.uv_udp_s = type { ptr, ptr, i32, ptr, %struct.uv__queue, %union.anon, ptr, i32, i64, i64, ptr, ptr, %struct.uv__io_s, %struct.uv__queue, %struct.uv__queue }
%union.anon = type { [4 x ptr] }
%struct.uv__io_s = type { ptr, %struct.uv__queue, %struct.uv__queue, i32, i32, i32 }
%struct.uv__queue = type { ptr, ptr }
%struct.uv_udp_send_s = type { ptr, i32, [6 x ptr], ptr, ptr, %struct.uv__queue, %union.anon.4, i32, ptr, i64, ptr, [4 x %struct.uv_buf_t] }
%union.anon.4 = type { %struct.sockaddr_storage }
%struct.sockaddr_storage = type { i16, [118 x i8], i64 }
%struct.uv_buf_t = type { ptr, i64 }

; Function Attrs: inlinehint nounwind uwtable
define internal void @uv__queue_insert_tail(ptr noundef %0, ptr noundef %1) #3 {
  %3 = alloca ptr, align 8
  %4 = alloca ptr, align 8
  store ptr %0, ptr %3, align 8
  store ptr %1, ptr %4, align 8
  %5 = load ptr, ptr %3, align 8
  %6 = load ptr, ptr %4, align 8
  %7 = getelementptr inbounds nuw %struct.uv__queue, ptr %6, i32 0, i32 0
  store ptr %5, ptr %7, align 8
  %8 = load ptr, ptr %3, align 8
  %9 = getelementptr inbounds nuw %struct.uv__queue, ptr %8, i32 0, i32 1
  %10 = load ptr, ptr %9, align 8
  %11 = load ptr, ptr %4, align 8
  %12 = getelementptr inbounds nuw %struct.uv__queue, ptr %11, i32 0, i32 1
  store ptr %10, ptr %12, align 8
  %13 = load ptr, ptr %4, align 8
  %14 = load ptr, ptr %4, align 8
  %15 = getelementptr inbounds nuw %struct.uv__queue, ptr %14, i32 0, i32 1
  %16 = load ptr, ptr %15, align 8
  %17 = getelementptr inbounds nuw %struct.uv__queue, ptr %16, i32 0, i32 0
  store ptr %13, ptr %17, align 8
  %18 = load ptr, ptr %4, align 8
  %19 = load ptr, ptr %3, align 8
  %20 = getelementptr inbounds nuw %struct.uv__queue, ptr %19, i32 0, i32 1
  store ptr %18, ptr %20, align 8
  ret void
}

; Function Attrs: inlinehint nounwind uwtable
define internal void @uv__queue_remove(ptr noundef %0) #3 {
  %2 = alloca ptr, align 8
  store ptr %0, ptr %2, align 8
  %3 = load ptr, ptr %2, align 8
  %4 = getelementptr inbounds nuw %struct.uv__queue, ptr %3, i32 0, i32 0
  %5 = load ptr, ptr %4, align 8
  %6 = load ptr, ptr %2, align 8
  %7 = getelementptr inbounds nuw %struct.uv__queue, ptr %6, i32 0, i32 1
  %8 = load ptr, ptr %7, align 8
  %9 = getelementptr inbounds nuw %struct.uv__queue, ptr %8, i32 0, i32 0
  store ptr %5, ptr %9, align 8
  %10 = load ptr, ptr %2, align 8
  %11 = getelementptr inbounds nuw %struct.uv__queue, ptr %10, i32 0, i32 1
  %12 = load ptr, ptr %11, align 8
  %13 = load ptr, ptr %2, align 8
  %14 = getelementptr inbounds nuw %struct.uv__queue, ptr %13, i32 0, i32 0
  %15 = load ptr, ptr %14, align 8
  %16 = getelementptr inbounds nuw %struct.uv__queue, ptr %15, i32 0, i32 1
  store ptr %12, ptr %16, align 8
  ret void
}

; Function Attrs: inlinehint nounwind uwtable
define internal ptr @uv__queue_head(ptr noundef %0) #3 {
  %2 = alloca ptr, align 8
  store ptr %0, ptr %2, align 8
  %3 = load ptr, ptr %2, align 8
  %4 = getelementptr inbounds nuw %struct.uv__queue, ptr %3, i32 0, i32 0
  %5 = load ptr, ptr %4, align 8
  ret ptr %5
}

; Function Attrs: inlinehint nounwind uwtable
define internal i32 @uv__queue_empty(ptr noundef %0) #3 {
  %2 = alloca ptr, align 8
  store ptr %0, ptr %2, align 8
  %3 = load ptr, ptr %2, align 8
  %4 = load ptr, ptr %2, align 8
  %5 = getelementptr inbounds nuw %struct.uv__queue, ptr %4, i32 0, i32 0
  %6 = load ptr, ptr %5, align 8
  %7 = icmp eq ptr %3, %6
  %8 = zext i1 %7 to i32
  ret i32 %8
}

; Function Attrs: nounwind uwtable
define hidden void @uv__udp_finish_close(ptr noundef %0) #0 {
  %2 = alloca ptr, align 8
  %3 = alloca ptr, align 8
  %4 = alloca ptr, align 8
  store ptr %0, ptr %2, align 8
  call void @llvm.lifetime.start.p0(i64 8, ptr %3) #10
  call void @llvm.lifetime.start.p0(i64 8, ptr %4) #10
  br label %5

5:                                                ; preds = %11, %1
  %6 = load ptr, ptr %2, align 8
  %7 = getelementptr inbounds nuw %struct.uv_udp_s, ptr %6, i32 0, i32 13
  %8 = call i32 @uv__queue_empty(ptr noundef %7)
  %9 = icmp ne i32 %8, 0
  %10 = xor i1 %9, true
  br i1 %10, label %11, label %24

11:                                               ; preds = %5
  %12 = load ptr, ptr %2, align 8
  %13 = getelementptr inbounds nuw %struct.uv_udp_s, ptr %12, i32 0, i32 13
  %14 = call ptr @uv__queue_head(ptr noundef %13)
  store ptr %14, ptr %4, align 8
  %15 = load ptr, ptr %4, align 8
  call void @uv__queue_remove(ptr noundef %15)
  %16 = load ptr, ptr %4, align 8
  %17 = getelementptr inbounds i8, ptr %16, i64 -80
  store ptr %17, ptr %3, align 8
  %18 = load ptr, ptr %3, align 8
  %19 = getelementptr inbounds nuw %struct.uv_udp_send_s, ptr %18, i32 0, i32 9
  store i64 -125, ptr %19, align 8
  %20 = load ptr, ptr %2, align 8
  %21 = getelementptr inbounds nuw %struct.uv_udp_s, ptr %20, i32 0, i32 14
  %22 = load ptr, ptr %3, align 8
  %23 = getelementptr inbounds nuw %struct.uv_udp_send_s, ptr %22, i32 0, i32 5
  call void @uv__queue_insert_tail(ptr noundef %21, ptr noundef %23)
  br label %5

24:                                               ; preds = %5
  %25 = load ptr, ptr %2, align 8
  call void @uv__udp_run_completed(ptr noundef %25)
  %26 = load ptr, ptr %2, align 8
  %27 = getelementptr inbounds nuw %struct.uv_udp_s, ptr %26, i32 0, i32 11
  store ptr null, ptr %27, align 8
  %28 = load ptr, ptr %2, align 8
  %29 = getelementptr inbounds nuw %struct.uv_udp_s, ptr %28, i32 0, i32 10
  store ptr null, ptr %29, align 8
  call void @llvm.lifetime.end.p0(i64 8, ptr %4) #10
  call void @llvm.lifetime.end.p0(i64 8, ptr %3) #10
  ret void
}