; Function Attrs: nounwind uwtable
define hidden void @uv__udp_finish_close(ptr noundef %0) local_unnamed_addr #0 {
  %2 = getelementptr inbounds nuw i8, ptr %0, i64 184
  %3 = load ptr, ptr %2, align 8
  %.not10 = icmp eq ptr %2, %3
  br i1 %.not10, label %._crit_edge, label %.lr.ph

.lr.ph:                                           ; preds = %1
  %4 = getelementptr inbounds nuw i8, ptr %0, i64 200
  %5 = getelementptr inbounds nuw i8, ptr %0, i64 208
  br label %6

6:                                                ; preds = %.lr.ph, %6
  %7 = phi ptr [ %3, %.lr.ph ], [ %15, %6 ]
  %8 = load ptr, ptr %7, align 8
  %9 = getelementptr inbounds nuw i8, ptr %7, i64 8
  %10 = load ptr, ptr %9, align 8
  store ptr %8, ptr %10, align 8
  %11 = load ptr, ptr %9, align 8
  %12 = getelementptr inbounds nuw i8, ptr %8, i64 8
  store ptr %11, ptr %12, align 8
  %13 = getelementptr inbounds nuw i8, ptr %7, i64 160
  store i64 -125, ptr %13, align 8
  store ptr %4, ptr %7, align 8
  %14 = load ptr, ptr %5, align 8
  store ptr %14, ptr %9, align 8
  store ptr %7, ptr %14, align 8
  store ptr %7, ptr %5, align 8
  %15 = load ptr, ptr %2, align 8
  %.not = icmp eq ptr %2, %15
  br i1 %.not, label %._crit_edge, label %6

._crit_edge:                                      ; preds = %6, %1
  tail call fastcc void @uv__udp_run_completed(ptr noundef nonnull %0)
  %16 = getelementptr inbounds nuw i8, ptr %0, i64 112
  tail call void @llvm.memset.p0.i64(ptr noundef nonnull align 8 dereferenceable(16) %16, i8 0, i64 16, i1 false)
  ret void
}